; Function Attrs: mustprogress nounwind uwtable
define hidden void @_ZN2cv11xfeatures2d8VGG_ImplD2Ev(ptr noundef nonnull align 8 dereferenceable(320) %0, ptr noundef %1) unnamed_addr #7 align 2 {
  %3 = getelementptr inbounds nuw i8, ptr %0, i64 224
  tail call void @_ZN2cv3MatD1Ev(ptr noundef nonnull align 8 dereferenceable(96) %3) #21
  %4 = getelementptr inbounds nuw i8, ptr %0, i64 128
  tail call void @_ZN2cv3MatD1Ev(ptr noundef nonnull align 8 dereferenceable(96) %4) #21
  %5 = getelementptr inbounds nuw i8, ptr %0, i64 32
  tail call void @_ZN2cv3MatD1Ev(ptr noundef nonnull align 8 dereferenceable(96) %5) #21
  %6 = getelementptr inbounds nuw i8, ptr %1, i64 16
  tail call void @_ZN2cv9Feature2DD2Ev(ptr noundef nonnull align 8 dereferenceable(8) %0, ptr noundef nonnull %6) #21
  ret void
}